target datalayout = "e-m:e-p270:32:32-p271:32:32-p272:64:64-i64:64-i128:128-f80:128-n8:16:32:64-S128"
target triple = "x86_64-pc-linux-gnu"

%struct.cs_dmperm_results = type { ptr, ptr, ptr, ptr, i32, [5 x i32], [5 x i32] }

; Function Attrs: nounwind uwtable
define ptr @cs_dfree(ptr noundef %0) #0 {
  %2 = alloca ptr, align 8
  %3 = alloca ptr, align 8
  store ptr %0, ptr %3, align 8, !tbaa !36
  %4 = load ptr, ptr %3, align 8, !tbaa !36
  %5 = icmp ne ptr %4, null
  br i1 %5, label %7, label %6

6:                                                ; preds = %1
  store ptr null, ptr %2, align 8
  br label %26

7:                                                ; preds = %1
  %8 = load ptr, ptr %3, align 8, !tbaa !36
  %9 = getelementptr inbounds nuw %struct.cs_dmperm_results, ptr %8, i32 0, i32 0
  %10 = load ptr, ptr %9, align 8, !tbaa !38
  %11 = call ptr @cs_free(ptr noundef %10)
  %12 = load ptr, ptr %3, align 8, !tbaa !36
  %13 = getelementptr inbounds nuw %struct.cs_dmperm_results, ptr %12, i32 0, i32 1
  %14 = load ptr, ptr %13, align 8, !tbaa !41
  %15 = call ptr @cs_free(ptr noundef %14)
  %16 = load ptr, ptr %3, align 8, !tbaa !36
  %17 = getelementptr inbounds nuw %struct.cs_dmperm_results, ptr %16, i32 0, i32 2
  %18 = load ptr, ptr %17, align 8, !tbaa !40
  %19 = call ptr @cs_free(ptr noundef %18)
  %20 = load ptr, ptr %3, align 8, !tbaa !36
  %21 = getelementptr inbounds nuw %struct.cs_dmperm_results, ptr %20, i32 0, i32 3
  %22 = load ptr, ptr %21, align 8, !tbaa !42
  %23 = call ptr @cs_free(ptr noundef %22)
  %24 = load ptr, ptr %3, align 8, !tbaa !36
  %25 = call ptr @cs_free(ptr noundef %24)
  store ptr %25, ptr %2, align 8
  br label %26

26:                                               ; preds = %7, %6
  %27 = load ptr, ptr %2, align 8
  ret ptr %27
}

; Function Attrs: nounwind uwtable
define ptr @cs_dalloc(i32 noundef %0, i32 noundef %1) #0 {
  %3 = alloca ptr, align 8
  %4 = alloca i32, align 4
  %5 = alloca i32, align 4
  %6 = alloca ptr, align 8
  %7 = alloca i32, align 4
  store i32 %0, ptr %4, align 4, !tbaa !3
  store i32 %1, ptr %5, align 4, !tbaa !3
  call void @llvm.lifetime.start.p0(i64 8, ptr %6) #3
  %8 = call ptr @cs_calloc(i32 noundef 1, i64 noundef 80)
  store ptr %8, ptr %6, align 8, !tbaa !36
  %9 = load ptr, ptr %6, align 8, !tbaa !36
  %10 = icmp ne ptr %9, null
  br i1 %10, label %12, label %11

11:                                               ; preds = %2
  store ptr null, ptr %3, align 8
  store i32 1, ptr %7, align 4
  br label %57

12:                                               ; preds = %2
  %13 = load i32, ptr %4, align 4, !tbaa !3
  %14 = call ptr @cs_malloc(i32 noundef %13, i64 noundef 4)
  %15 = load ptr, ptr %6, align 8, !tbaa !36
  %16 = getelementptr inbounds nuw %struct.cs_dmperm_results, ptr %15, i32 0, i32 0
  store ptr %14, ptr %16, align 8, !tbaa !38
  %17 = load i32, ptr %4, align 4, !tbaa !3
  %18 = add nsw i32 %17, 6
  %19 = call ptr @cs_malloc(i32 noundef %18, i64 noundef 4)
  %20 = load ptr, ptr %6, align 8, !tbaa !36
  %21 = getelementptr inbounds nuw %struct.cs_dmperm_results, ptr %20, i32 0, i32 2
  store ptr %19, ptr %21, align 8, !tbaa !40
  %22 = load i32, ptr %5, align 4, !tbaa !3
  %23 = call ptr @cs_malloc(i32 noundef %22, i64 noundef 4)
  %24 = load ptr, ptr %6, align 8, !tbaa !36
  %25 = getelementptr inbounds nuw %struct.cs_dmperm_results, ptr %24, i32 0, i32 1
  store ptr %23, ptr %25, align 8, !tbaa !41
  %26 = load i32, ptr %5, align 4, !tbaa !3
  %27 = add nsw i32 %26, 6
  %28 = call ptr @cs_malloc(i32 noundef %27, i64 noundef 4)
  %29 = load ptr, ptr %6, align 8, !tbaa !36
  %30 = getelementptr inbounds nuw %struct.cs_dmperm_results, ptr %29, i32 0, i32 3
  store ptr %28, ptr %30, align 8, !tbaa !42
  %31 = load ptr, ptr %6, align 8, !tbaa !36
  %32 = getelementptr inbounds nuw %struct.cs_dmperm_results, ptr %31, i32 0, i32 0
  %33 = load ptr, ptr %32, align 8, !tbaa !38
  %34 = icmp ne ptr %33, null
  br i1 %34, label %35, label %50

35:                                               ; preds = %12
  %36 = load ptr, ptr %6, align 8, !tbaa !36
  %37 = getelementptr inbounds nuw %struct.cs_dmperm_results, ptr %36, i32 0, i32 2
  %38 = load ptr, ptr %37, align 8, !tbaa !40
  %39 = icmp ne ptr %38, null
  br i1 %39, label %40, label %50

40:                                               ; preds = %35
  %41 = load ptr, ptr %6, align 8, !tbaa !36
  %42 = getelementptr inbounds nuw %struct.cs_dmperm_results, ptr %41, i32 0, i32 1
  %43 = load ptr, ptr %42, align 8, !tbaa !41
  %44 = icmp ne ptr %43, null
  br i1 %44, label %45, label %50

45:                                               ; preds = %40
  %46 = load ptr, ptr %6, align 8, !tbaa !36
  %47 = getelementptr inbounds nuw %struct.cs_dmperm_results, ptr %46, i32 0, i32 3
  %48 = load ptr, ptr %47, align 8, !tbaa !42
  %49 = icmp ne ptr %48, null
  br i1 %49, label %53, label %50

50:                                               ; preds = %45, %40, %35, %12
  %51 = load ptr, ptr %6, align 8, !tbaa !36
  %52 = call ptr @cs_dfree(ptr noundef %51)
  br label %55

53:                                               ; preds = %45
  %54 = load ptr, ptr %6, align 8, !tbaa !36
  br label %55

55:                                               ; preds = %53, %50
  %56 = phi ptr [ %52, %50 ], [ %54, %53 ]
  store ptr %56, ptr %3, align 8
  store i32 1, ptr %7, align 4
  br label %57

57:                                               ; preds = %55, %11
  call void @llvm.lifetime.end.p0(i64 8, ptr %6) #3
  %58 = load ptr, ptr %3, align 8
  ret ptr %58
}