; Function Attrs: nounwind uwtable
define ptr @cs_dalloc(i32 noundef %0, i32 noundef %1) local_unnamed_addr #0 {
  %3 = tail call ptr @cs_calloc(i32 noundef 1, i64 noundef 80) #4
  %.not = icmp eq ptr %3, null
  br i1 %.not, label %27, label %4

4:                                                ; preds = %2
  %5 = tail call ptr @cs_malloc(i32 noundef %0, i64 noundef 4) #4
  store ptr %5, ptr %3, align 8, !tbaa !31
  %6 = add nsw i32 %0, 6
  %7 = tail call ptr @cs_malloc(i32 noundef %6, i64 noundef 4) #4
  %8 = getelementptr inbounds nuw i8, ptr %3, i64 16
  store ptr %7, ptr %8, align 8, !tbaa !33
  %9 = tail call ptr @cs_malloc(i32 noundef %1, i64 noundef 4) #4
  %10 = getelementptr inbounds nuw i8, ptr %3, i64 8
  store ptr %9, ptr %10, align 8, !tbaa !34
  %11 = add nsw i32 %1, 6
  %12 = tail call ptr @cs_malloc(i32 noundef %11, i64 noundef 4) #4
  %13 = getelementptr inbounds nuw i8, ptr %3, i64 24
  store ptr %12, ptr %13, align 8, !tbaa !35
  %14 = load ptr, ptr %3, align 8, !tbaa !31
  %.not16 = icmp eq ptr %14, null
  br i1 %.not16, label %cs_dfree.exit, label %15

15:                                               ; preds = %4
  %16 = load ptr, ptr %8, align 8, !tbaa !33
  %.not17 = icmp eq ptr %16, null
  br i1 %.not17, label %cs_dfree.exit, label %17

17:                                               ; preds = %15
  %18 = load ptr, ptr %10, align 8, !tbaa !34
  %.not18 = icmp eq ptr %18, null
  %.not19 = icmp eq ptr %12, null
  %or.cond = select i1 %.not18, i1 true, i1 %.not19
  br i1 %or.cond, label %cs_dfree.exit, label %27

cs_dfree.exit:                                    ; preds = %17, %15, %4
  %19 = tail call ptr @cs_free(ptr noundef %14) #4
  %20 = load ptr, ptr %10, align 8, !tbaa !34
  %21 = tail call ptr @cs_free(ptr noundef %20) #4
  %22 = load ptr, ptr %8, align 8, !tbaa !33
  %23 = tail call ptr @cs_free(ptr noundef %22) #4
  %24 = load ptr, ptr %13, align 8, !tbaa !35
  %25 = tail call ptr @cs_free(ptr noundef %24) #4
  %26 = tail call ptr @cs_free(ptr noundef nonnull %3) #4
  br label %27

27:                                               ; preds = %cs_dfree.exit, %17, %2
  %.0 = phi ptr [ null, %2 ], [ %26, %cs_dfree.exit ], [ %3, %17 ]
  ret ptr %.0
}